; Function Attrs: mustprogress uwtable
define noundef range(i32 -1, 1) i32 @_ZN3zmq6pair_t5xsendEPNS_5msg_tE(ptr noundef nonnull readonly align 8 captures(none) dereferenceable(1840) %0, ptr noundef %1) unnamed_addr #0 align 2 {
  %3 = getelementptr inbounds nuw i8, ptr %0, i64 1832
  %4 = load ptr, ptr %3, align 8, !tbaa !6
  %.not = icmp eq ptr %4, null
  br i1 %.not, label %7, label %5

5:                                                ; preds = %2
  %6 = tail call noundef zeroext i1 @_ZN3zmq6pipe_t5writeEPKNS_5msg_tE(ptr noundef nonnull align 8 dereferenceable(328) %4, ptr noundef %1)
  br i1 %6, label %9, label %7

7:                                                ; preds = %5, %2
  %8 = tail call ptr @__errno_location() #17
  store i32 11, ptr %8, align 4, !tbaa !90
  br label %24

9:                                                ; preds = %5
  %10 = tail call noundef zeroext i8 @_ZNK3zmq5msg_t5flagsEv(ptr noundef nonnull align 8 dereferenceable(64) %1)
  %11 = and i8 %10, 1
  %.not8 = icmp eq i8 %11, 0
  br i1 %.not8, label %12, label %14

12:                                               ; preds = %9
  %13 = load ptr, ptr %3, align 8, !tbaa !6
  tail call void @_ZN3zmq6pipe_t5flushEv(ptr noundef nonnull align 8 dereferenceable(328) %13)
  br label %14

14:                                               ; preds = %12, %9
  %15 = tail call noundef i32 @_ZN3zmq5msg_t4initEv(ptr noundef nonnull align 8 dereferenceable(64) %1)
  %.not9 = icmp eq i32 %15, 0
  br i1 %.not9, label %24, label %16, !prof !86

16:                                               ; preds = %14
  %17 = tail call ptr @__errno_location() #17
  %18 = load i32, ptr %17, align 4, !tbaa !90
  %19 = tail call ptr @strerror(i32 noundef %18) #14
  %20 = load ptr, ptr @stderr, align 8, !tbaa !87
  %21 = tail call i32 (ptr, ptr, ...) @fprintf(ptr noundef %20, ptr noundef nonnull @.str.4, ptr noundef %19, ptr noundef nonnull @.str.2, i32 noundef 69) #13
  %22 = load ptr, ptr @stderr, align 8, !tbaa !87
  %23 = tail call i32 @fflush(ptr noundef %22)
  tail call void @_ZN3zmq9zmq_abortEPKc(ptr noundef %19)
  br label %24

24:                                               ; preds = %14, %16, %7
  %.0 = phi i32 [ -1, %7 ], [ 0, %16 ], [ 0, %14 ]
  ret i32 %.0
}